; Function Attrs: nounwind uwtable
define hidden void @X11_Xinput2SelectTouch(ptr noundef readonly captures(none) %0, ptr noundef readonly captures(none) %1) local_unnamed_addr #0 {
  %3 = alloca %struct.XIEventMask, align 8
  %4 = alloca [4 x i8], align 4
  call void @llvm.lifetime.start.p0(i64 16, ptr nonnull %3) #8
  call void @llvm.lifetime.start.p0(i64 4, ptr nonnull %4) #8
  store i32 1835072, ptr %4, align 4
  %.b1.i = load i1, ptr @xinput2_initialized, align 1
  %5 = load i8, ptr @xinput2_multitouch_supported, align 1, !range !3
  %6 = trunc nuw i8 %5 to i1
  %7 = select i1 %.b1.i, i1 %6, i1 false
  br i1 %7, label %8, label %20

8:                                                ; preds = %2
  %9 = getelementptr inbounds nuw i8, ptr %0, i64 1656
  %10 = load ptr, ptr %9, align 8
  %11 = getelementptr inbounds nuw i8, ptr %1, i64 392
  %12 = load ptr, ptr %11, align 8
  store i32 1, ptr %3, align 8
  %13 = getelementptr inbounds nuw i8, ptr %3, i64 4
  store i32 4, ptr %13, align 4
  %14 = getelementptr inbounds nuw i8, ptr %3, i64 8
  store ptr %4, ptr %14, align 8
  %15 = load ptr, ptr @X11_XISelectEvents, align 8
  %16 = load ptr, ptr %10, align 8
  %17 = getelementptr inbounds nuw i8, ptr %12, i64 8
  %18 = load i64, ptr %17, align 8
  %19 = call i32 %15(ptr noundef %16, i64 noundef %18, ptr noundef nonnull %3, i32 noundef 1) #8
  br label %20

20:                                               ; preds = %2, %8
  call void @llvm.lifetime.end.p0(i64 4, ptr nonnull %4) #8
  call void @llvm.lifetime.end.p0(i64 16, ptr nonnull %3) #8
  ret void
}